
OrigamiLight.elf:     file format elf32-avr

Sections:
Idx Name          Size      VMA       LMA       File off  Algn
  0 .text         000002c6  00000000  00000000  00000094  2**1
                  CONTENTS, ALLOC, LOAD, READONLY, CODE
  1 .data         00000004  00800060  000002c6  0000035a  2**0
                  CONTENTS, ALLOC, LOAD, DATA
  2 .bss          00000006  00800064  00800064  0000035e  2**0
                  ALLOC
  3 .comment      00000030  00000000  00000000  0000035e  2**0
                  CONTENTS, READONLY
  4 .note.gnu.avr.deviceinfo 0000003c  00000000  00000000  00000390  2**2
                  CONTENTS, READONLY
  5 .debug_info   000002dc  00000000  00000000  000003cc  2**0
                  CONTENTS, READONLY, DEBUGGING
  6 .debug_abbrev 000002b6  00000000  00000000  000006a8  2**0
                  CONTENTS, READONLY, DEBUGGING
  7 .debug_line   000000ca  00000000  00000000  0000095e  2**0
                  CONTENTS, READONLY, DEBUGGING
  8 .debug_str    00000100  00000000  00000000  00000a28  2**0
                  CONTENTS, READONLY, DEBUGGING

Disassembly of section .text:

00000000 <__vectors>:
   0:	09 c0       	rjmp	.+18     	; 0x14 <__ctors_end>
   2:	4c c1       	rjmp	.+664    	; 0x29c <__vector_1>
   4:	20 c0       	rjmp	.+64     	; 0x46 <__bad_interrupt>
   6:	df c0       	rjmp	.+446    	; 0x1c6 <__vector_3>
   8:	1e c0       	rjmp	.+60     	; 0x46 <__bad_interrupt>
   a:	1d c0       	rjmp	.+58     	; 0x46 <__bad_interrupt>
   c:	1c c0       	rjmp	.+56     	; 0x46 <__bad_interrupt>
   e:	1b c0       	rjmp	.+54     	; 0x46 <__bad_interrupt>
  10:	04 c1       	rjmp	.+520    	; 0x21a <__vector_8>
  12:	19 c0       	rjmp	.+50     	; 0x46 <__bad_interrupt>

00000014 <__ctors_end>:
  14:	11 24       	eor	r1, r1
  16:	1f be       	out	0x3f, r1	; 63
  18:	cf e9       	ldi	r28, 0x9F	; 159
  1a:	cd bf       	out	0x3d, r28	; 61

0000001c <__do_copy_data>:
  1c:	10 e0       	ldi	r17, 0x00	; 0
  1e:	a0 e6       	ldi	r26, 0x60	; 96
  20:	b0 e0       	ldi	r27, 0x00	; 0
  22:	e6 ec       	ldi	r30, 0xC6	; 198
  24:	f2 e0       	ldi	r31, 0x02	; 2
  26:	02 c0       	rjmp	.+4      	; 0x2c <__do_copy_data+0x10>
  28:	05 90       	lpm	r0, Z+
  2a:	0d 92       	st	X+, r0
  2c:	a4 36       	cpi	r26, 0x64	; 100
  2e:	b1 07       	cpc	r27, r17
  30:	d9 f7       	brne	.-10     	; 0x28 <__do_copy_data+0xc>

00000032 <__do_clear_bss>:
  32:	20 e0       	ldi	r18, 0x00	; 0
  34:	a4 e6       	ldi	r26, 0x64	; 100
  36:	b0 e0       	ldi	r27, 0x00	; 0
  38:	01 c0       	rjmp	.+2      	; 0x3c <.do_clear_bss_start>

0000003a <.do_clear_bss_loop>:
  3a:	1d 92       	st	X+, r1

0000003c <.do_clear_bss_start>:
  3c:	aa 36       	cpi	r26, 0x6A	; 106
  3e:	b2 07       	cpc	r27, r18
  40:	e1 f7       	brne	.-8      	; 0x3a <.do_clear_bss_loop>
  42:	90 d0       	rcall	.+288    	; 0x164 <main>
  44:	3e c1       	rjmp	.+636    	; 0x2c2 <_exit>

00000046 <__bad_interrupt>:
  46:	dc cf       	rjmp	.-72     	; 0x0 <__vectors>

00000048 <_Z5setupv>:
  48:	f8 94       	cli
  4a:	17 ba       	out	0x17, r1	; 23
  4c:	18 ba       	out	0x18, r1	; 24
  4e:	b9 98       	cbi	0x17, 1	; 23
  50:	c1 9a       	sbi	0x18, 1	; 24
  52:	8f b5       	in	r24, 0x2f	; 47
  54:	83 68       	ori	r24, 0x83	; 131
  56:	8f bd       	out	0x2f, r24	; 47
  58:	83 b7       	in	r24, 0x33	; 51
  5a:	84 60       	ori	r24, 0x04	; 4
  5c:	83 bf       	out	0x33, r24	; 51
  5e:	89 b7       	in	r24, 0x39	; 57
  60:	82 60       	ori	r24, 0x02	; 2
  62:	89 bf       	out	0x39, r24	; 57
  64:	85 b7       	in	r24, 0x35	; 53
  66:	80 63       	ori	r24, 0x30	; 48
  68:	85 bf       	out	0x35, r24	; 53
  6a:	16 be       	out	0x36, r1	; 54
  6c:	14 be       	out	0x34, r1	; 52
  6e:	88 e1       	ldi	r24, 0x18	; 24
  70:	81 bd       	out	0x21, r24	; 33
  72:	81 e6       	ldi	r24, 0x61	; 97
  74:	81 bd       	out	0x21, r24	; 33
  76:	78 94       	sei
  78:	08 95       	ret

0000007a <_Z13sensorFlippedv>:
  7a:	20 91 66 00 	lds	r18, 0x0066	; 0x800066 <_ZZ13sensorFlippedvE1i>
  7e:	30 91 65 00 	lds	r19, 0x0065	; 0x800065 <_ZZ13sensorFlippedvE9sensorIns>
  82:	b1 9b       	sbis	0x16, 1	; 22
  84:	0b c0       	rjmp	.+22     	; 0x9c <_Z13sensorFlippedv+0x22>
  86:	41 e0       	ldi	r20, 0x01	; 1
  88:	50 e0       	ldi	r21, 0x00	; 0
  8a:	02 2e       	mov	r0, r18
  8c:	01 c0       	rjmp	.+2      	; 0x90 <_Z13sensorFlippedv+0x16>
  8e:	44 0f       	add	r20, r20
  90:	0a 94       	dec	r0
  92:	ea f7       	brpl	.-6      	; 0x8e <_Z13sensorFlippedv+0x14>
  94:	43 2b       	or	r20, r19
  96:	40 93 65 00 	sts	0x0065, r20	; 0x800065 <_ZZ13sensorFlippedvE9sensorIns>
  9a:	0b c0       	rjmp	.+22     	; 0xb2 <__stack+0x13>
  9c:	81 e0       	ldi	r24, 0x01	; 1
  9e:	90 e0       	ldi	r25, 0x00	; 0
  a0:	02 2e       	mov	r0, r18
  a2:	01 c0       	rjmp	.+2      	; 0xa6 <__stack+0x7>
  a4:	88 0f       	add	r24, r24
  a6:	0a 94       	dec	r0
  a8:	ea f7       	brpl	.-6      	; 0xa4 <__stack+0x5>
  aa:	80 95       	com	r24
  ac:	83 23       	and	r24, r19
  ae:	80 93 65 00 	sts	0x0065, r24	; 0x800065 <_ZZ13sensorFlippedvE9sensorIns>
  b2:	27 30       	cpi	r18, 0x07	; 7
  b4:	20 f4       	brcc	.+8      	; 0xbe <__stack+0x1f>
  b6:	2f 5f       	subi	r18, 0xFF	; 255
  b8:	20 93 66 00 	sts	0x0066, r18	; 0x800066 <_ZZ13sensorFlippedvE1i>
  bc:	02 c0       	rjmp	.+4      	; 0xc2 <__stack+0x23>
  be:	10 92 66 00 	sts	0x0066, r1	; 0x800066 <_ZZ13sensorFlippedvE1i>
  c2:	60 91 65 00 	lds	r22, 0x0065	; 0x800065 <_ZZ13sensorFlippedvE9sensorIns>
  c6:	70 e0       	ldi	r23, 0x00	; 0
  c8:	20 e0       	ldi	r18, 0x00	; 0
  ca:	30 e0       	ldi	r19, 0x00	; 0
  cc:	90 e0       	ldi	r25, 0x00	; 0
  ce:	ab 01       	movw	r20, r22
  d0:	02 2e       	mov	r0, r18
  d2:	02 c0       	rjmp	.+4      	; 0xd8 <__stack+0x39>
  d4:	55 95       	asr	r21
  d6:	47 95       	ror	r20
  d8:	0a 94       	dec	r0
  da:	e2 f7       	brpl	.-8      	; 0xd4 <__stack+0x35>
  dc:	41 70       	andi	r20, 0x01	; 1
  de:	94 0f       	add	r25, r20
  e0:	2f 5f       	subi	r18, 0xFF	; 255
  e2:	3f 4f       	sbci	r19, 0xFF	; 255
  e4:	28 30       	cpi	r18, 0x08	; 8
  e6:	31 05       	cpc	r19, r1
  e8:	91 f7       	brne	.-28     	; 0xce <__stack+0x2f>
  ea:	80 91 61 00 	lds	r24, 0x0061	; 0x800061 <_ZZ13sensorFlippedvE9sensorPos>
  ee:	88 23       	and	r24, r24
  f0:	21 f0       	breq	.+8      	; 0xfa <__stack+0x5b>
  f2:	93 30       	cpi	r25, 0x03	; 3
  f4:	20 f0       	brcs	.+8      	; 0xfe <__stack+0x5f>
  f6:	80 e0       	ldi	r24, 0x00	; 0
  f8:	08 95       	ret
  fa:	97 30       	cpi	r25, 0x07	; 7
  fc:	28 f0       	brcs	.+10     	; 0x108 <__stack+0x69>
  fe:	91 e0       	ldi	r25, 0x01	; 1
 100:	89 27       	eor	r24, r25
 102:	80 93 61 00 	sts	0x0061, r24	; 0x800061 <_ZZ13sensorFlippedvE9sensorPos>
 106:	81 e0       	ldi	r24, 0x01	; 1
 108:	08 95       	ret

0000010a <_Z5sleepv>:
 10a:	10 92 68 00 	sts	0x0068, r1	; 0x800068 <secSleep+0x1>
 10e:	10 92 67 00 	sts	0x0067, r1	; 0x800067 <secSleep>
 112:	8b b7       	in	r24, 0x3b	; 59
 114:	80 64       	ori	r24, 0x40	; 64
 116:	8b bf       	out	0x3b, r24	; 59
 118:	85 b7       	in	r24, 0x35	; 53
 11a:	80 62       	ori	r24, 0x20	; 32
 11c:	85 bf       	out	0x35, r24	; 53
 11e:	88 95       	sleep
 120:	85 b7       	in	r24, 0x35	; 53
 122:	8f 7d       	andi	r24, 0xDF	; 223
 124:	85 bf       	out	0x35, r24	; 53
 126:	08 95       	ret

00000128 <_Z6rampUPv>:
 128:	b8 9a       	sbi	0x17, 0	; 23
 12a:	86 b7       	in	r24, 0x36	; 54
 12c:	8f 3f       	cpi	r24, 0xFF	; 255
 12e:	51 f0       	breq	.+20     	; 0x144 <_Z6rampUPv+0x1c>
 130:	86 b7       	in	r24, 0x36	; 54
 132:	8f 5f       	subi	r24, 0xFF	; 255
 134:	86 bf       	out	0x36, r24	; 54
 136:	8f ef       	ldi	r24, 0xFF	; 255
 138:	9c e7       	ldi	r25, 0x7C	; 124
 13a:	01 97       	sbiw	r24, 0x01	; 1
 13c:	f1 f7       	brne	.-4      	; 0x13a <_Z6rampUPv+0x12>
 13e:	00 c0       	rjmp	.+0      	; 0x140 <_Z6rampUPv+0x18>
 140:	00 00       	nop
 142:	f3 cf       	rjmp	.-26     	; 0x12a <_Z6rampUPv+0x2>
 144:	08 95       	ret

00000146 <_Z8rampDOWNv>:
 146:	86 b7       	in	r24, 0x36	; 54
 148:	88 23       	and	r24, r24
 14a:	51 f0       	breq	.+20     	; 0x160 <_Z8rampDOWNv+0x1a>
 14c:	86 b7       	in	r24, 0x36	; 54
 14e:	81 50       	subi	r24, 0x01	; 1
 150:	86 bf       	out	0x36, r24	; 54
 152:	8f ef       	ldi	r24, 0xFF	; 255
 154:	9c e7       	ldi	r25, 0x7C	; 124
 156:	01 97       	sbiw	r24, 0x01	; 1
 158:	f1 f7       	brne	.-4      	; 0x156 <_Z8rampDOWNv+0x10>
 15a:	00 c0       	rjmp	.+0      	; 0x15c <_Z8rampDOWNv+0x16>
 15c:	00 00       	nop
 15e:	f3 cf       	rjmp	.-26     	; 0x146 <_Z8rampDOWNv>
 160:	b8 98       	cbi	0x17, 0	; 23
 162:	d3 cf       	rjmp	.-90     	; 0x10a <_Z5sleepv>

00000164 <main>:
 164:	71 df       	rcall	.-286    	; 0x48 <_Z5setupv>
 166:	78 94       	sei
 168:	8f e6       	ldi	r24, 0x6F	; 111
 16a:	97 e1       	ldi	r25, 0x17	; 23
 16c:	01 97       	sbiw	r24, 0x01	; 1
 16e:	f1 f7       	brne	.-4      	; 0x16c <main+0x8>
 170:	00 c0       	rjmp	.+0      	; 0x172 <main+0xe>
 172:	00 00       	nop
 174:	82 df       	rcall	.-252    	; 0x7a <_Z13sensorFlippedv>
 176:	90 91 69 00 	lds	r25, 0x0069	; 0x800069 <flips>
 17a:	89 0f       	add	r24, r25
 17c:	80 93 69 00 	sts	0x0069, r24	; 0x800069 <flips>
 180:	80 91 69 00 	lds	r24, 0x0069	; 0x800069 <flips>
 184:	87 30       	cpi	r24, 0x07	; 7
 186:	60 f0       	brcs	.+24     	; 0x1a0 <main+0x3c>
 188:	10 92 69 00 	sts	0x0069, r1	; 0x800069 <flips>
 18c:	10 92 68 00 	sts	0x0068, r1	; 0x800068 <secSleep+0x1>
 190:	10 92 67 00 	sts	0x0067, r1	; 0x800067 <secSleep>
 194:	86 b7       	in	r24, 0x36	; 54
 196:	88 23       	and	r24, r24
 198:	11 f0       	breq	.+4      	; 0x19e <main+0x3a>
 19a:	d5 df       	rcall	.-86     	; 0x146 <_Z8rampDOWNv>
 19c:	01 c0       	rjmp	.+2      	; 0x1a0 <main+0x3c>
 19e:	c4 df       	rcall	.-120    	; 0x128 <_Z6rampUPv>
 1a0:	80 91 67 00 	lds	r24, 0x0067	; 0x800067 <secSleep>
 1a4:	90 91 68 00 	lds	r25, 0x0068	; 0x800068 <secSleep+0x1>
 1a8:	89 37       	cpi	r24, 0x79	; 121
 1aa:	91 05       	cpc	r25, r1
 1ac:	08 f0       	brcs	.+2      	; 0x1b0 <main+0x4c>
 1ae:	cb df       	rcall	.-106    	; 0x146 <_Z8rampDOWNv>
 1b0:	80 91 62 00 	lds	r24, 0x0062	; 0x800062 <wdtSleep>
 1b4:	88 23       	and	r24, r24
 1b6:	c1 f2       	breq	.-80     	; 0x168 <main+0x4>
 1b8:	86 b7       	in	r24, 0x36	; 54
 1ba:	81 11       	cpse	r24, r1
 1bc:	d5 cf       	rjmp	.-86     	; 0x168 <main+0x4>
 1be:	10 92 62 00 	sts	0x0062, r1	; 0x800062 <wdtSleep>
 1c2:	a3 df       	rcall	.-186    	; 0x10a <_Z5sleepv>
 1c4:	d1 cf       	rjmp	.-94     	; 0x168 <main+0x4>

000001c6 <__vector_3>:
 1c6:	1f 92       	push	r1
 1c8:	0f 92       	push	r0
 1ca:	0f b6       	in	r0, 0x3f	; 63
 1cc:	0f 92       	push	r0
 1ce:	11 24       	eor	r1, r1
 1d0:	8f 93       	push	r24
 1d2:	9f 93       	push	r25
 1d4:	80 91 64 00 	lds	r24, 0x0064	; 0x800064 <__data_end>
 1d8:	8f 5f       	subi	r24, 0xFF	; 255
 1da:	8b 37       	cpi	r24, 0x7B	; 123
 1dc:	18 f4       	brcc	.+6      	; 0x1e4 <__vector_3+0x1e>
 1de:	80 93 64 00 	sts	0x0064, r24	; 0x800064 <__data_end>
 1e2:	14 c0       	rjmp	.+40     	; 0x20c <__vector_3+0x46>
 1e4:	10 92 64 00 	sts	0x0064, r1	; 0x800064 <__data_end>
 1e8:	80 91 67 00 	lds	r24, 0x0067	; 0x800067 <secSleep>
 1ec:	90 91 68 00 	lds	r25, 0x0068	; 0x800068 <secSleep+0x1>
 1f0:	01 96       	adiw	r24, 0x01	; 1
 1f2:	90 93 68 00 	sts	0x0068, r25	; 0x800068 <secSleep+0x1>
 1f6:	80 93 67 00 	sts	0x0067, r24	; 0x800067 <secSleep>
 1fa:	80 91 69 00 	lds	r24, 0x0069	; 0x800069 <flips>
 1fe:	88 23       	and	r24, r24
 200:	29 f0       	breq	.+10     	; 0x20c <__vector_3+0x46>
 202:	80 91 69 00 	lds	r24, 0x0069	; 0x800069 <flips>
 206:	81 50       	subi	r24, 0x01	; 1
 208:	80 93 69 00 	sts	0x0069, r24	; 0x800069 <flips>
 20c:	9f 91       	pop	r25
 20e:	8f 91       	pop	r24
 210:	0f 90       	pop	r0
 212:	0f be       	out	0x3f, r0	; 63
 214:	0f 90       	pop	r0
 216:	1f 90       	pop	r1
 218:	18 95       	reti

0000021a <__vector_8>:
 21a:	1f 92       	push	r1
 21c:	0f 92       	push	r0
 21e:	0f b6       	in	r0, 0x3f	; 63
 220:	0f 92       	push	r0
 222:	11 24       	eor	r1, r1
 224:	2f 93       	push	r18
 226:	3f 93       	push	r19
 228:	4f 93       	push	r20
 22a:	5f 93       	push	r21
 22c:	6f 93       	push	r22
 22e:	7f 93       	push	r23
 230:	8f 93       	push	r24
 232:	9f 93       	push	r25
 234:	af 93       	push	r26
 236:	bf 93       	push	r27
 238:	ef 93       	push	r30
 23a:	ff 93       	push	r31
 23c:	81 b5       	in	r24, 0x21	; 33
 23e:	80 64       	ori	r24, 0x40	; 64
 240:	81 bd       	out	0x21, r24	; 33
 242:	81 e0       	ldi	r24, 0x01	; 1
 244:	80 93 62 00 	sts	0x0062, r24	; 0x800062 <wdtSleep>
 248:	b2 9b       	sbis	0x16, 2	; 22
 24a:	08 c0       	rjmp	.+16     	; 0x25c <__vector_8+0x42>
 24c:	80 91 60 00 	lds	r24, 0x0060	; 0x800060 <__DATA_REGION_ORIGIN__>
 250:	8a 30       	cpi	r24, 0x0A	; 10
 252:	98 f4       	brcc	.+38     	; 0x27a <__vector_8+0x60>
 254:	8f 5f       	subi	r24, 0xFF	; 255
 256:	80 93 60 00 	sts	0x0060, r24	; 0x800060 <__DATA_REGION_ORIGIN__>
 25a:	0f c0       	rjmp	.+30     	; 0x27a <__vector_8+0x60>
 25c:	86 b7       	in	r24, 0x36	; 54
 25e:	81 11       	cpse	r24, r1
 260:	0c c0       	rjmp	.+24     	; 0x27a <__vector_8+0x60>
 262:	10 92 60 00 	sts	0x0060, r1	; 0x800060 <__DATA_REGION_ORIGIN__>
 266:	60 df       	rcall	.-320    	; 0x128 <_Z6rampUPv>
 268:	8e e6       	ldi	r24, 0x6E	; 110
 26a:	90 e0       	ldi	r25, 0x00	; 0
 26c:	90 93 68 00 	sts	0x0068, r25	; 0x800068 <secSleep+0x1>
 270:	80 93 67 00 	sts	0x0067, r24	; 0x800067 <secSleep>
 274:	8b b7       	in	r24, 0x3b	; 59
 276:	80 64       	ori	r24, 0x40	; 64
 278:	8b bf       	out	0x3b, r24	; 59
 27a:	ff 91       	pop	r31
 27c:	ef 91       	pop	r30
 27e:	bf 91       	pop	r27
 280:	af 91       	pop	r26
 282:	9f 91       	pop	r25
 284:	8f 91       	pop	r24
 286:	7f 91       	pop	r23
 288:	6f 91       	pop	r22
 28a:	5f 91       	pop	r21
 28c:	4f 91       	pop	r20
 28e:	3f 91       	pop	r19
 290:	2f 91       	pop	r18
 292:	0f 90       	pop	r0
 294:	0f be       	out	0x3f, r0	; 63
 296:	0f 90       	pop	r0
 298:	1f 90       	pop	r1
 29a:	18 95       	reti

0000029c <__vector_1>:
 29c:	1f 92       	push	r1
 29e:	0f 92       	push	r0
 2a0:	0f b6       	in	r0, 0x3f	; 63
 2a2:	0f 92       	push	r0
 2a4:	11 24       	eor	r1, r1
 2a6:	8f 93       	push	r24
 2a8:	8b b7       	in	r24, 0x3b	; 59
 2aa:	8f 7b       	andi	r24, 0xBF	; 191
 2ac:	8b bf       	out	0x3b, r24	; 59
 2ae:	10 92 68 00 	sts	0x0068, r1	; 0x800068 <secSleep+0x1>
 2b2:	10 92 67 00 	sts	0x0067, r1	; 0x800067 <secSleep>
 2b6:	8f 91       	pop	r24
 2b8:	0f 90       	pop	r0
 2ba:	0f be       	out	0x3f, r0	; 63
 2bc:	0f 90       	pop	r0
 2be:	1f 90       	pop	r1
 2c0:	18 95       	reti

000002c2 <_exit>:
 2c2:	f8 94       	cli

000002c4 <__stop_program>:
 2c4:	ff cf       	rjmp	.-2      	; 0x2c4 <__stop_program>
